Certificate:
    Data:
        Version: 3 (0x2)
        Serial Number: 6 (0x6)
    Signature Algorithm: sha256WithRSAEncryption
        Issuer: C=JP, ST=Tokyo, L=Tokyo, O=Internet Widgits Pty Ltd, CN=myCA
        Validity
            Not Before: Mar 30 11:11:15 2017 GMT
            Not After : Mar 30 11:11:15 2018 GMT
        Subject: C=JP, ST=Tokyo, O=Internet Widgits Pty Ltd, CN=anotherclient
        Subject Public Key Info:
            Public Key Algorithm: rsaEncryption
                Public-Key: (2048 bit)
                Modulus:
                    00:cf:b1:49:1e:2c:7e:a6:2e:db:29:ea:5c:48:a2:
                    e7:76:23:48:a6:a6:58:02:5b:cf:da:9b:40:9c:18:
                    ba:f3:b4:c6:b6:4c:ba:31:f3:6f:21:4d:22:07:b8:
                    44:45:7b:7f:30:5c:2b:03:50:c8:59:f3:a2:03:d8:
                    ea:be:76:30:1a:e0:12:43:67:7f:eb:76:83:b9:b7:
                    72:40:0b:a3:20:d8:b5:b5:36:61:76:34:f9:eb:bc:
                    a8:73:7d:42:2d:b8:85:42:89:50:96:59:fd:c4:18:
                    23:5f:14:d8:8c:07:28:7f:49:10:f5:c5:e9:b0:95:
                    fc:40:3f:af:f1:c3:5f:d0:a8:b8:4a:76:53:7e:7c:
                    b7:41:84:a0:05:88:29:b2:f1:b5:90:ef:47:bf:b9:
                    87:27:10:7b:8b:f6:09:04:d3:b8:9f:fd:e3:e5:5c:
                    fe:52:0a:74:2c:1f:72:cc:c5:15:70:15:dd:6a:11:
                    79:ea:55:1c:03:77:1a:a7:72:4f:70:f1:ea:8e:6c:
                    f1:9c:63:9f:24:d2:ea:93:25:e0:c4:03:30:ff:d9:
                    71:f6:cd:ad:86:23:79:27:56:61:06:2f:2c:6c:a9:
                    4a:c0:26:f9:33:e5:f4:6d:65:30:d9:49:d4:01:c6:
                    f7:18:85:22:90:dc:8e:86:b2:32:33:38:ce:a6:a5:
                    d7:43
                Exponent: 65537 (0x10001)
        X509v3 extensions:
            X509v3 Basic Constraints: 
                CA:FALSE
            Netscape Comment: 
                OpenSSL Generated Certificate
            X509v3 Subject Key Identifier: 
                76:2D:5A:E8:2E:9B:2C:3D:95:45:38:2F:A5:20:F2:5A:C6:BB:2F:C3
            X509v3 Authority Key Identifier: 
                keyid:06:9C:F9:DF:15:E5:C1:85:32:F3:40:03:28:FE:10:0D:F5:8D:31:33

    Signature Algorithm: sha256WithRSAEncryption
         4b:e0:0a:5b:61:69:7e:8c:70:fe:0c:57:9a:66:16:f7:49:73:
         c4:c0:18:f5:bc:ac:63:35:02:5e:a1:26:77:e0:2e:b1:0b:cf:
         6e:92:c0:0a:d4:e2:8f:24:2b:87:bf:66:fd:c9:ac:0d:64:51:
         b0:6a:39:43:03:e9:3c:94:7c:9a:cd:27:28:bf:18:5a:e1:98:
         72:30:23:69:7f:67:92:cf:d4:ec:98:84:68:27:a0:62:b9:1d:
         21:4f:9a:61:4f:2f:c2:11:76:65:67:0b:01:33:15:62:01:73:
         c6:ee:b2:94:16:73:ce:c2:32:e6:ef:dd:c6:22:87:4b:bb:65:
         ef:47:3c:b4:c0:80:f4:35:df:4c:a7:72:94:0c:f4:92:e1:7b:
         4d:d4:0e:a2:86:28:49:8b:3a:25:ea:08:42:5b:37:13:bd:32:
         d2:b3:3a:a9:e8:95:50:15:3d:01:30:4c:e3:71:30:4d:3f:4c:
         34:05:a3:7d:f3:5e:da:aa:11:5c:53:a6:89:08:ef:90:80:cf:
         d7:9f:72:e4:c2:ce:a5:25:41:90:5a:1e:0d:be:c2:19:7b:b2:
         f3:62:cc:64:87:2b:7b:a8:bb:bf:da:ba:44:7a:23:ba:97:38:
         c4:b9:36:36:22:eb:ae:fe:8b:fd:69:36:0b:bb:68:31:19:39:
         4e:0c:4c:be
-----BEGIN CERTIFICATE-----
MIIDrTCCApWgAwIBAgIBBjANBgkqhkiG9w0BAQsFADBfMQswCQYDVQQGEwJKUDEO
MAwGA1UECAwFVG9reW8xDjAMBgNVBAcMBVRva3lvMSEwHwYDVQQKDBhJbnRlcm5l
dCBXaWRnaXRzIFB0eSBMdGQxDTALBgNVBAMMBG15Q0EwHhcNMTcwMzMwMTExMTE1
WhcNMTgwMzMwMTExMTE1WjBYMQswCQYDVQQGEwJKUDEOMAwGA1UECAwFVG9reW8x
ITAfBgNVBAoMGEludGVybmV0IFdpZGdpdHMgUHR5IEx0ZDEWMBQGA1UEAwwNYW5v
dGhlcmNsaWVudDCCASIwDQYJKoZIhvcNAQEBBQADggEPADCCAQoCggEBAM+xSR4s
fqYu2ynqXEii53YjSKamWAJbz9qbQJwYuvO0xrZMujHzbyFNIge4REV7fzBcKwNQ
yFnzogPY6r52MBrgEkNnf+t2g7m3ckALoyDYtbU2YXY0+eu8qHN9Qi24hUKJUJZZ
/cQYI18U2IwHKH9JEPXF6bCV/EA/r/HDX9CouEp2U358t0GEoAWIKbLxtZDvR7+5
hycQe4v2CQTTuJ/94+Vc/lIKdCwfcszFFXAV3WoReepVHAN3GqdyT3Dx6o5s8Zxj
nyTS6pMl4MQDMP/ZcfbNrYYjeSdWYQYvLGypSsAm+TPl9G1lMNlJ1AHG9xiFIpDc
joayMjM4zqal10MCAwEAAaN7MHkwCQYDVR0TBAIwADAsBglghkgBhvhCAQ0EHxYd
T3BlblNTTCBHZW5lcmF0ZWQgQ2VydGlmaWNhdGUwHQYDVR0OBBYEFHYtWugumyw9
lUU4L6Ug8lrGuy/DMB8GA1UdIwQYMBaAFAac+d8V5cGFMvNAAyj+EA31jTEzMA0G
CSqGSIb3DQEBCwUAA4IBAQBL4ApbYWl+jHD+DFeaZhb3SXPEwBj1vKxjNQJeoSZ3
4C6xC89uksAK1OKPJCuHv2b9yawNZFGwajlDA+k8lHyazScovxha4ZhyMCNpf2eS
z9TsmIRoJ6BiuR0hT5phTy/CEXZlZwsBMxViAXPG7rKUFnPOwjLm793GIodLu2Xv
Rzy0wID0Nd9Mp3KUDPSS4XtN1A6ihihJizol6ghCWzcTvTLSszqp6JVQFT0BMEzj
cTBNP0w0BaN9817aqhFcU6aJCO+QgM/Xn3Lkws6lJUGQWh4NvsIZe7LzYsxkhyt7
qLu/2rpEeiO6lzjEuTY2Iuuu/ov9aTYLu2gxGTlODEy+
-----END CERTIFICATE-----
