Certificate:
    Data:
        Version: 3 (0x2)
        Serial Number: 2 (0x2)
    Signature Algorithm: sha256WithRSAEncryption
        Issuer: C=JP, ST=Tokyo, L=Tokyo, O=Internet Widgits Pty Ltd, CN=myCA
        Validity
            Not Before: Mar  6 11:51:14 2017 GMT
            Not After : Mar  6 11:51:14 2018 GMT
        Subject: C=JP, ST=Tokyo, O=Internet Widgits Pty Ltd, CN=testClient
        Subject Public Key Info:
            Public Key Algorithm: rsaEncryption
                Public-Key: (2048 bit)
                Modulus:
                    00:bd:6c:5d:01:46:c0:1b:82:d2:a3:43:ff:57:32:
                    b2:7d:8d:88:f0:30:27:8d:55:f6:11:6a:32:c1:5c:
                    1c:3c:1c:97:c8:15:d1:0a:e1:d7:47:cc:08:41:61:
                    42:cb:93:3d:ae:2d:48:49:75:c9:15:56:50:d3:bc:
                    c4:5c:5d:29:e4:54:37:02:22:32:55:f9:80:bd:85:
                    08:96:e6:4b:a9:a7:7e:3f:8c:5a:47:48:76:a1:01:
                    08:aa:a9:d3:aa:2d:99:49:af:c9:57:6e:4c:96:60:
                    9e:cf:f4:82:06:04:97:93:39:89:82:e5:21:80:83:
                    1c:f6:7d:3a:11:cd:15:3f:9c:b4:80:eb:f9:30:43:
                    d0:28:81:15:c9:0e:a1:8e:29:cd:91:de:fe:a4:0b:
                    19:88:51:5d:86:55:23:78:7a:87:d3:03:ce:49:c0:
                    74:d2:77:36:17:86:c5:9f:4e:7a:83:4b:44:78:77:
                    fc:41:81:84:c4:ce:1f:eb:90:8b:e1:7f:c2:78:10:
                    45:3f:d1:eb:01:37:e4:d6:6d:02:3a:e7:f9:93:ad:
                    83:e8:6c:35:3d:9a:f3:ea:34:38:d9:e7:f2:78:71:
                    3f:aa:f3:c3:3e:3c:6a:8e:dc:42:c5:9f:27:57:a0:
                    99:45:8f:c6:2e:fa:db:8c:12:30:c8:1b:9a:f8:68:
                    ed:6f
                Exponent: 65537 (0x10001)
        X509v3 extensions:
            X509v3 Basic Constraints: 
                CA:FALSE
            Netscape Comment: 
                OpenSSL Generated Certificate
            X509v3 Subject Key Identifier: 
                5F:29:01:94:8C:D8:55:EF:1E:C3:2A:B7:FA:EC:48:68:55:1B:1D:0B
            X509v3 Authority Key Identifier: 
                keyid:95:D8:AD:98:98:BD:61:9B:E9:F2:E0:25:B2:C2:5E:33:F3:AA:F1:BF

    Signature Algorithm: sha256WithRSAEncryption
         37:78:ea:a5:1c:12:68:2b:8b:42:67:e5:b1:af:0d:1e:81:e7:
         fa:ea:1b:65:ed:f5:2c:ce:73:1d:3b:32:62:7f:c5:1f:05:76:
         29:43:11:6e:46:95:ec:16:2f:eb:4e:c5:84:10:71:10:af:db:
         08:cd:d7:f0:36:49:3c:ac:29:ab:38:84:11:04:19:55:14:e1:
         82:92:54:a4:3c:4a:03:b3:0a:da:3d:bf:e2:2f:1b:fe:f4:94:
         f3:e7:a4:22:03:77:e5:7f:9a:a2:65:90:c3:cb:41:8d:7d:d8:
         37:bd:d1:78:0e:d9:eb:dd:5a:49:28:c6:ad:c9:6c:ab:8d:d4:
         b0:c5:94:b1:b1:cb:99:04:ad:66:b5:fa:9f:f4:ff:4f:22:45:
         a4:70:1a:44:b8:86:4f:25:25:1f:47:e7:27:22:1b:00:4b:3a:
         3b:3f:5c:fe:6f:3b:de:73:6b:be:4a:18:82:87:0b:d0:49:3a:
         ca:97:57:94:3f:39:7b:90:c9:9a:1f:81:45:15:f3:e5:54:f4:
         a3:4c:70:68:d3:1e:9f:83:9f:99:3f:3b:bb:c3:e4:d0:71:51:
         47:82:7c:4f:5a:3f:a3:8a:2d:8d:43:9e:fa:d5:dc:72:5e:d6:
         be:6a:15:79:f7:a4:9e:1f:a8:c4:85:8f:63:1b:73:73:79:29:
         3d:40:ef:17
-----BEGIN CERTIFICATE-----
MIIDqjCCApKgAwIBAgIBAjANBgkqhkiG9w0BAQsFADBfMQswCQYDVQQGEwJKUDEO
MAwGA1UECAwFVG9reW8xDjAMBgNVBAcMBVRva3lvMSEwHwYDVQQKDBhJbnRlcm5l
dCBXaWRnaXRzIFB0eSBMdGQxDTALBgNVBAMMBG15Q0EwHhcNMTcwMzA2MTE1MTE0
WhcNMTgwMzA2MTE1MTE0WjBVMQswCQYDVQQGEwJKUDEOMAwGA1UECAwFVG9reW8x
ITAfBgNVBAoMGEludGVybmV0IFdpZGdpdHMgUHR5IEx0ZDETMBEGA1UEAwwKdGVz
dENsaWVudDCCASIwDQYJKoZIhvcNAQEBBQADggEPADCCAQoCggEBAL1sXQFGwBuC
0qND/1cysn2NiPAwJ41V9hFqMsFcHDwcl8gV0Qrh10fMCEFhQsuTPa4tSEl1yRVW
UNO8xFxdKeRUNwIiMlX5gL2FCJbmS6mnfj+MWkdIdqEBCKqp06otmUmvyVduTJZg
ns/0ggYEl5M5iYLlIYCDHPZ9OhHNFT+ctIDr+TBD0CiBFckOoY4pzZHe/qQLGYhR
XYZVI3h6h9MDzknAdNJ3NheGxZ9OeoNLRHh3/EGBhMTOH+uQi+F/wngQRT/R6wE3
5NZtAjrn+ZOtg+hsNT2a8+o0ONnn8nhxP6rzwz48ao7cQsWfJ1egmUWPxi7624wS
MMgbmvho7W8CAwEAAaN7MHkwCQYDVR0TBAIwADAsBglghkgBhvhCAQ0EHxYdT3Bl
blNTTCBHZW5lcmF0ZWQgQ2VydGlmaWNhdGUwHQYDVR0OBBYEFF8pAZSM2FXvHsMq
t/rsSGhVGx0LMB8GA1UdIwQYMBaAFJXYrZiYvWGb6fLgJbLCXjPzqvG/MA0GCSqG
SIb3DQEBCwUAA4IBAQA3eOqlHBJoK4tCZ+Wxrw0egef66htl7fUsznMdOzJif8Uf
BXYpQxFuRpXsFi/rTsWEEHEQr9sIzdfwNkk8rCmrOIQRBBlVFOGCklSkPEoDswra
Pb/iLxv+9JTz56QiA3flf5qiZZDDy0GNfdg3vdF4Dtnr3VpJKMatyWyrjdSwxZSx
scuZBK1mtfqf9P9PIkWkcBpEuIZPJSUfR+cnIhsASzo7P1z+bzvec2u+ShiChwvQ
STrKl1eUPzl7kMmaH4FFFfPlVPSjTHBo0x6fg5+ZPzu7w+TQcVFHgnxPWj+jii2N
Q5761dxyXta+ahV596SeH6jEhY9jG3NzeSk9QO8X
-----END CERTIFICATE-----
