Certificate:
    Data:
        Version: 3 (0x2)
        Serial Number: 2 (0x2)
    Signature Algorithm: sha256WithRSAEncryption
        Issuer: C=JP, ST=Tokyo, L=Tokyo, O=Tokyo, OU=Tokyo, CN=myCA
        Validity
            Not Before: Apr  4 15:23:32 2018 GMT
            Not After : Apr  1 15:23:32 2028 GMT
        Subject: C=JP, ST=Tokyo, O=Tokyo, OU=Tokyo, CN=testClient
        Subject Public Key Info:
            Public Key Algorithm: rsaEncryption
                Public-Key: (2048 bit)
                Modulus:
                    00:c7:03:f2:c8:47:7a:14:52:c3:bc:02:d4:03:49:
                    70:d2:14:28:a7:bf:38:c1:44:64:39:08:59:66:50:
                    17:6a:88:67:a6:02:3c:f7:fb:f2:09:b8:af:df:1f:
                    33:b8:8e:2e:af:39:2b:94:02:36:a7:13:c5:d4:70:
                    0b:78:59:b0:c3:6e:52:7d:d5:26:52:a6:11:16:be:
                    3f:da:d2:ef:a3:48:c7:03:99:6a:32:43:7a:af:6c:
                    5b:af:0b:b7:14:f6:e0:f7:0a:6f:c5:a4:e1:19:60:
                    0b:f0:21:8b:ab:73:08:80:45:57:96:76:c9:7d:89:
                    49:35:30:87:b6:47:2c:49:27:69:29:29:e9:31:52:
                    af:60:c8:9c:fe:ca:21:78:af:e3:fa:9c:ed:aa:86:
                    25:fd:75:4f:0d:69:8c:5f:b8:0d:1c:c6:79:31:28:
                    3b:4c:11:0d:3a:92:f3:b2:6b:68:a9:0d:0d:cc:e2:
                    99:47:47:db:cf:c5:2c:87:4e:61:d5:86:ac:f7:b0:
                    40:35:ec:1c:e8:cd:b3:e7:9a:bb:a0:61:ec:60:9a:
                    ce:8a:30:41:05:0b:05:d1:c5:e8:b0:36:85:33:a2:
                    32:75:29:38:46:f6:5a:77:a1:c3:a5:23:64:f2:14:
                    8c:f4:d1:ab:82:0f:1c:15:d3:41:63:8c:bc:80:d1:
                    8d:85
                Exponent: 65537 (0x10001)
        X509v3 extensions:
            X509v3 Basic Constraints: 
                CA:FALSE
            Netscape Comment: 
                OpenSSL Generated Certificate
            X509v3 Subject Key Identifier: 
                BC:A9:75:83:4E:58:14:73:CF:50:6E:06:87:6E:44:E6:8F:2C:42:F9
            X509v3 Authority Key Identifier: 
                keyid:06:04:6D:1D:89:9C:4B:18:13:4C:CF:34:F6:79:7B:14:8F:F0:9E:CB

    Signature Algorithm: sha256WithRSAEncryption
         02:0f:7c:0d:06:79:99:2c:8d:61:c0:5b:21:0e:ad:38:df:31:
         66:70:1a:66:12:e0:89:a4:8f:95:9d:00:c6:3e:4b:81:af:9d:
         74:b9:cc:e2:8d:ed:7b:08:dd:bd:d7:9d:b6:ca:e6:6e:04:b5:
         a5:73:d1:14:48:0c:99:06:90:b5:51:ad:eb:72:dc:43:a1:e1:
         cb:d0:2c:d6:9d:91:84:92:68:c7:07:29:af:ba:96:37:b2:d7:
         b2:da:8d:99:79:76:1d:c9:75:d3:ad:ba:bd:9f:e6:3d:96:f0:
         aa:be:e3:42:67:94:7f:4e:59:1e:ed:52:f3:d6:f8:75:80:fa:
         8a:49:fa:e9:6e:cc:16:46:99:59:79:8c:f4:3d:17:8b:6e:fa:
         9f:d2:42:09:41:e8:d7:0e:30:91:28:50:04:59:2e:bc:4e:40:
         b9:a0:d6:31:01:52:eb:95:55:16:48:2e:32:03:cc:f9:91:d2:
         69:4d:17:11:28:30:5e:0d:93:4b:6b:a6:68:da:41:81:78:13:
         3e:6f:4c:7e:75:f0:c6:5d:ee:6f:74:64:b1:4b:b2:76:9f:bc:
         f4:c3:a1:24:79:e4:b3:1c:b9:ea:33:8a:ba:a6:b0:1a:f9:ce:
         78:22:57:3d:1e:6b:9f:14:99:37:95:9a:e8:24:5a:d9:8f:ef:
         68:56:56:16
-----BEGIN CERTIFICATE-----
MIIDpDCCAoygAwIBAgIBAjANBgkqhkiG9w0BAQsFADBcMQswCQYDVQQGEwJKUDEO
MAwGA1UECAwFVG9reW8xDjAMBgNVBAcMBVRva3lvMQ4wDAYDVQQKDAVUb2t5bzEO
MAwGA1UECwwFVG9reW8xDTALBgNVBAMMBG15Q0EwHhcNMTgwNDA0MTUyMzMyWhcN
MjgwNDAxMTUyMzMyWjBSMQswCQYDVQQGEwJKUDEOMAwGA1UECAwFVG9reW8xDjAM
BgNVBAoMBVRva3lvMQ4wDAYDVQQLDAVUb2t5bzETMBEGA1UEAwwKdGVzdENsaWVu
dDCCASIwDQYJKoZIhvcNAQEBBQADggEPADCCAQoCggEBAMcD8shHehRSw7wC1ANJ
cNIUKKe/OMFEZDkIWWZQF2qIZ6YCPPf78gm4r98fM7iOLq85K5QCNqcTxdRwC3hZ
sMNuUn3VJlKmERa+P9rS76NIxwOZajJDeq9sW68LtxT24PcKb8Wk4RlgC/Ahi6tz
CIBFV5Z2yX2JSTUwh7ZHLEknaSkp6TFSr2DInP7KIXiv4/qc7aqGJf11Tw1pjF+4
DRzGeTEoO0wRDTqS87JraKkNDczimUdH28/FLIdOYdWGrPewQDXsHOjNs+eau6Bh
7GCazoowQQULBdHF6LA2hTOiMnUpOEb2Wnehw6UjZPIUjPTRq4IPHBXTQWOMvIDR
jYUCAwEAAaN7MHkwCQYDVR0TBAIwADAsBglghkgBhvhCAQ0EHxYdT3BlblNTTCBH
ZW5lcmF0ZWQgQ2VydGlmaWNhdGUwHQYDVR0OBBYEFLypdYNOWBRzz1BuBoduROaP
LEL5MB8GA1UdIwQYMBaAFAYEbR2JnEsYE0zPNPZ5exSP8J7LMA0GCSqGSIb3DQEB
CwUAA4IBAQACD3wNBnmZLI1hwFshDq043zFmcBpmEuCJpI+VnQDGPkuBr510uczi
je17CN291522yuZuBLWlc9EUSAyZBpC1Ua3rctxDoeHL0CzWnZGEkmjHBymvupY3
stey2o2ZeXYdyXXTrbq9n+Y9lvCqvuNCZ5R/Tlke7VLz1vh1gPqKSfrpbswWRplZ
eYz0PReLbvqf0kIJQejXDjCRKFAEWS68TkC5oNYxAVLrlVUWSC4yA8z5kdJpTRcR
KDBeDZNLa6Zo2kGBeBM+b0x+dfDGXe5vdGSxS7J2n7z0w6EkeeSzHLnqM4q6prAa
+c54Ilc9HmufFJk3lZroJFrZj+9oVlYW
-----END CERTIFICATE-----
