Certificate:
    Data:
        Version: 3 (0x2)
        Serial Number: 1 (0x1)
    Signature Algorithm: sha256WithRSAEncryption
        Issuer: C=JP, ST=Tokyo, L=Tokyo, O=Tokyo, OU=Tokyo, CN=myCA
        Validity
            Not Before: Apr  4 15:18:05 2018 GMT
            Not After : Apr  1 15:18:05 2028 GMT
        Subject: C=JP, ST=Tokyo, O=Tokyo, OU=Tokyo, CN=127.0.0.1
        Subject Public Key Info:
            Public Key Algorithm: rsaEncryption
                Public-Key: (2048 bit)
                Modulus:
                    00:b3:56:b9:5d:39:ac:a8:21:39:0a:ec:32:61:00:
                    70:79:ad:23:f9:bb:cc:b7:9a:00:8d:68:21:48:eb:
                    ab:de:cb:f2:84:cb:a9:dc:6e:ef:47:4e:be:1d:c1:
                    65:92:91:45:2d:21:8b:57:88:28:7e:46:df:6d:49:
                    7c:47:d7:66:8c:cf:48:10:d9:ef:10:04:87:a5:67:
                    08:fd:5f:90:94:11:5c:db:0c:3b:d4:53:05:2a:42:
                    dc:1d:38:53:64:7a:58:0b:6d:4d:cc:9b:3e:17:87:
                    41:26:fe:eb:d5:7d:8d:51:4c:0b:0b:59:24:f3:50:
                    d7:ac:fd:95:45:e1:a2:07:cf:a1:02:33:e2:4a:56:
                    a7:a8:bf:36:e3:a2:b9:1f:4f:28:16:58:a5:45:79:
                    37:0e:5b:ba:62:fd:47:71:8a:05:5e:c0:ba:6d:42:
                    cf:70:a6:67:69:78:d6:58:c1:3e:3b:61:df:d4:b9:
                    0d:e1:5e:86:64:26:03:ca:bd:a0:19:39:84:08:fe:
                    5c:ce:7d:37:f2:2f:e7:43:29:f3:44:e6:4f:17:be:
                    a7:57:4b:37:6b:e7:b5:a0:cf:d8:fe:d6:72:cb:52:
                    db:d4:79:77:2b:6d:1c:12:e1:3c:36:16:c6:b6:68:
                    3a:1f:09:23:db:2a:71:20:4e:37:d0:a5:4d:ac:fb:
                    ee:ed
                Exponent: 65537 (0x10001)
        X509v3 extensions:
            X509v3 Basic Constraints: 
                CA:FALSE
            Netscape Comment: 
                OpenSSL Generated Certificate
            X509v3 Subject Key Identifier: 
                88:20:EE:CB:45:DC:D2:B2:2C:C6:B0:5D:E3:6B:7C:BB:54:22:DB:87
            X509v3 Authority Key Identifier: 
                keyid:06:04:6D:1D:89:9C:4B:18:13:4C:CF:34:F6:79:7B:14:8F:F0:9E:CB

    Signature Algorithm: sha256WithRSAEncryption
         6b:31:2b:aa:78:52:be:6d:72:b3:86:a1:2f:bc:5d:9a:cc:ff:
         d2:ac:48:1c:ed:60:b1:f3:bb:fe:9b:3e:63:8d:5c:fe:64:0c:
         63:8d:2a:d4:7c:d6:66:08:a3:d3:ae:c0:3c:f9:a5:fa:0d:4e:
         aa:fc:94:ad:ed:5f:a5:df:44:b2:7d:24:c6:8b:41:8a:b9:2f:
         46:b4:30:1f:e5:c8:0d:4e:33:42:b3:a0:ac:b8:b6:cc:e5:f9:
         18:56:e7:d6:e2:24:b2:75:e1:03:c0:02:db:73:a9:db:e1:21:
         69:e5:e0:bd:5e:8c:dc:74:70:22:95:8b:c7:19:f4:1d:2c:df:
         d1:17:d4:08:06:e8:de:97:32:26:18:a5:79:86:ea:c4:b8:0b:
         1a:f7:47:c8:5d:d7:81:ce:49:55:dc:fa:92:b1:c9:59:86:d4:
         e4:9e:c4:d5:dd:43:f9:94:99:c1:75:2c:6a:cf:c4:eb:61:08:
         76:6c:a0:87:84:37:f2:28:f5:f8:d4:ba:f8:6e:c8:9c:db:8e:
         c8:aa:fa:d1:06:e5:3c:8b:f0:4e:a2:98:7a:f7:89:f1:40:da:
         0d:27:8f:b2:f4:50:69:8f:30:39:43:c5:9f:51:72:e2:e9:00:
         6e:59:08:73:01:fa:96:89:a1:e6:09:f7:c9:12:21:67:fe:1c:
         58:16:f6:f9
-----BEGIN CERTIFICATE-----
MIIDozCCAougAwIBAgIBATANBgkqhkiG9w0BAQsFADBcMQswCQYDVQQGEwJKUDEO
MAwGA1UECAwFVG9reW8xDjAMBgNVBAcMBVRva3lvMQ4wDAYDVQQKDAVUb2t5bzEO
MAwGA1UECwwFVG9reW8xDTALBgNVBAMMBG15Q0EwHhcNMTgwNDA0MTUxODA1WhcN
MjgwNDAxMTUxODA1WjBRMQswCQYDVQQGEwJKUDEOMAwGA1UECAwFVG9reW8xDjAM
BgNVBAoMBVRva3lvMQ4wDAYDVQQLDAVUb2t5bzESMBAGA1UEAwwJMTI3LjAuMC4x
MIIBIjANBgkqhkiG9w0BAQEFAAOCAQ8AMIIBCgKCAQEAs1a5XTmsqCE5CuwyYQBw
ea0j+bvMt5oAjWghSOur3svyhMup3G7vR06+HcFlkpFFLSGLV4gofkbfbUl8R9dm
jM9IENnvEASHpWcI/V+QlBFc2ww71FMFKkLcHThTZHpYC21NzJs+F4dBJv7r1X2N
UUwLC1kk81DXrP2VReGiB8+hAjPiSlanqL8246K5H08oFlilRXk3Dlu6Yv1HcYoF
XsC6bULPcKZnaXjWWME+O2Hf1LkN4V6GZCYDyr2gGTmECP5czn038i/nQynzROZP
F76nV0s3a+e1oM/Y/tZyy1Lb1Hl3K20cEuE8NhbGtmg6Hwkj2ypxIE430KVNrPvu
7QIDAQABo3sweTAJBgNVHRMEAjAAMCwGCWCGSAGG+EIBDQQfFh1PcGVuU1NMIEdl
bmVyYXRlZCBDZXJ0aWZpY2F0ZTAdBgNVHQ4EFgQUiCDuy0Xc0rIsxrBd42t8u1Qi
24cwHwYDVR0jBBgwFoAUBgRtHYmcSxgTTM809nl7FI/wnsswDQYJKoZIhvcNAQEL
BQADggEBAGsxK6p4Ur5tcrOGoS+8XZrM/9KsSBztYLHzu/6bPmONXP5kDGONKtR8
1mYIo9OuwDz5pfoNTqr8lK3tX6XfRLJ9JMaLQYq5L0a0MB/lyA1OM0KzoKy4tszl
+RhW59biJLJ14QPAAttzqdvhIWnl4L1ejNx0cCKVi8cZ9B0s39EX1AgG6N6XMiYY
pXmG6sS4Cxr3R8hd14HOSVXc+pKxyVmG1OSexNXdQ/mUmcF1LGrPxOthCHZsoIeE
N/Io9fjUuvhuyJzbjsiq+tEG5TyL8E6imHr3ifFA2g0nj7L0UGmPMDlDxZ9RcuLp
AG5ZCHMB+paJoeYJ98kSIWf+HFgW9vk=
-----END CERTIFICATE-----
-----BEGIN PRIVATE KEY-----
MIIEvQIBADANBgkqhkiG9w0BAQEFAASCBKcwggSjAgEAAoIBAQCzVrldOayoITkK
7DJhAHB5rSP5u8y3mgCNaCFI66vey/KEy6ncbu9HTr4dwWWSkUUtIYtXiCh+Rt9t
SXxH12aMz0gQ2e8QBIelZwj9X5CUEVzbDDvUUwUqQtwdOFNkelgLbU3Mmz4Xh0Em
/uvVfY1RTAsLWSTzUNes/ZVF4aIHz6ECM+JKVqeovzbjorkfTygWWKVFeTcOW7pi
/UdxigVewLptQs9wpmdpeNZYwT47Yd/UuQ3hXoZkJgPKvaAZOYQI/lzOfTfyL+dD
KfNE5k8XvqdXSzdr57Wgz9j+1nLLUtvUeXcrbRwS4Tw2Fsa2aDofCSPbKnEgTjfQ
pU2s++7tAgMBAAECggEAYNDMuRtNrmZhGRhyChPmpIloBoXv+p5U9gHlFizEWD7Z
6f7Y8HujCWflEsM5RmrOYZLeWp7S3Xj9XU5ynYYXgqTUTuSYPplzcUOygrZ4orbM
3iQ4mGNJQotdsRibTH8P0PttKKwWVTVbYuX0AwkIpX7b54B0hjZ6eJVdZKBujLAO
dzB7CLfpRAWPlmTsho0Utyh8WZ3yy/HaRLm5zkkAedUZJ4Y+C/dZ3E0Jq/CZptFd
kifwEWg+rWXhZqK1TWcKUj80lxRqsLm26N1e5aELxxZ3bmVJ5+slYn8Ur9SLCPZP
VuIaCjWjqTDaF0Y4Mbnon+UT36XjNnBUOI7yoMHZMQKBgQDkVBp+HbEugfHrkaRS
OUIUlNoaXbg9Yacv/9TRfhTLuxwJKEcL55cqexPfOVUivlx7lNpafCxUss5c3JjV
GGmkrgO59bq9HfeVD2lw3MbK3UElXdsd/hLby2eTK1BIa0sim47O8hHeFRtyS86u
igpvADf2p97FBtYvfyYEc4NWawKBgQDJErZcjcHo5o6iumqC8rdpFpl2iw/e44S1
/FLuPNY4x4VpmjIbcq0x9uH0mP64epjS7j1xmSzeNaLpjZbi6MIKLnuVzk3Tu7s7
hW1FddBCus6O/hBEZoe80imPNFRGswdYV3+010VvQrX9uNhKtUBImpCMeaSfPxkU
nNdztv42BwKBgDwJIS4oAH6KDGI0WVCFXaqruO1V1yvMkXk9e2faDv3CpQyDWqr2
qfixg/gdyxTnmMmlygQgwkdC/J/OISFm2eBDIRe0VPWE+6Rl+QOECYEtzANXOlYY
iDzirskziliAXbEr1dD0NV5/jkfvRtj90uB83josyZZkxcyXUhe5h78hAoGABUSV
PIWGQAjSUdcadUXQolMyQBXSm59QWcg7j/xODHzFtQeSKn/to7J5JwRfIAwuNtCB
EZnWwBedpgrMmjNI6iVfnYQjK9nuRNfxDfHRO/5S7RIg8PnSspK6/gJ79sI3/guE
0AMX0Zto0zXljMeE4KIUCWoicv2fNZgKWQDBVj8CgYEA4ITpUhV7FNPw76Zo+9nY
48czmOeVo0MfrBMdFq8KJoh6zx2MA5GFeyPu3CP74vwYlc2PH8amHjkGzTmP5kO3
Hthmvmeru9ic4oJnK7NkpcST8mESeb1GZEpIUh7c6saT1J2/O69c6zvVvZEAmjyX
7XNa7qpjZ4tTAFLPa3NGDdo=
-----END PRIVATE KEY-----
