Certificate:
    Data:
        Version: 3 (0x2)
        Serial Number: 1 (0x1)
    Signature Algorithm: sha256WithRSAEncryption
        Issuer: C=JP, ST=Tokyo, L=Tokyo, O=Internet Widgits Pty Ltd, CN=myCA
        Validity
            Not Before: Mar  6 11:30:43 2017 GMT
            Not After : Mar  6 11:30:43 2018 GMT
        Subject: C=JP, ST=Tokyo, O=Internet Widgits Pty Ltd, CN=127.0.0.1
        Subject Public Key Info:
            Public Key Algorithm: rsaEncryption
                Public-Key: (2048 bit)
                Modulus:
                    00:a8:67:e4:69:23:70:c8:c8:b8:62:b0:76:05:51:
                    90:c8:05:54:de:14:3b:ce:0c:d3:16:22:af:9d:80:
                    37:84:ff:82:41:29:32:ac:21:19:c5:dc:39:e2:7f:
                    12:b6:71:37:90:66:33:1a:4a:68:09:a6:d8:49:a2:
                    fd:15:62:6e:05:eb:cb:94:68:e5:20:10:08:64:a9:
                    65:2d:f5:f9:73:4a:a8:85:a6:ea:e5:45:fd:c7:a1:
                    08:99:84:9c:5d:d4:f6:f1:69:66:6e:14:78:fc:b4:
                    6c:bf:52:24:0b:f4:04:94:e0:ae:55:59:4c:dd:02:
                    f1:c4:d8:c6:79:46:8c:86:3d:cf:df:59:6e:62:97:
                    7c:f1:df:89:76:db:6b:74:f1:86:f9:e7:75:f1:c8:
                    a4:bd:03:d5:63:4a:60:22:39:be:1d:5d:5e:dd:93:
                    46:df:74:be:dd:a1:79:0f:e9:4d:3c:ab:f4:83:c1:
                    fb:a8:35:1d:23:41:c2:57:6a:0b:93:19:c6:bc:e7:
                    7c:6a:f5:ed:48:0b:02:ec:4d:99:90:bd:12:aa:a7:
                    00:1f:22:f7:c4:74:a6:91:73:61:d6:b5:f3:bc:9a:
                    fa:8f:28:64:63:b7:07:8c:46:0f:f1:f9:f8:23:36:
                    50:1e:34:10:ec:99:cc:11:4e:23:75:ac:6c:1c:8a:
                    02:bd
                Exponent: 65537 (0x10001)
        X509v3 extensions:
            X509v3 Basic Constraints: 
                CA:FALSE
            Netscape Comment: 
                OpenSSL Generated Certificate
            X509v3 Subject Key Identifier: 
                50:57:99:83:7D:7D:3E:AC:66:84:A7:34:40:D0:C3:4D:7E:EA:DD:5C
            X509v3 Authority Key Identifier: 
                keyid:95:D8:AD:98:98:BD:61:9B:E9:F2:E0:25:B2:C2:5E:33:F3:AA:F1:BF

    Signature Algorithm: sha256WithRSAEncryption
         36:8f:3c:4e:d5:eb:5e:a8:88:a2:3c:b9:d3:31:49:3e:a2:8d:
         a6:9b:58:7e:58:8c:97:61:ed:d5:b1:b0:fd:ef:89:5a:78:92:
         13:60:e1:e3:80:b7:48:8b:f1:2b:86:7b:91:8a:df:38:fa:a2:
         20:4b:f9:84:61:2f:e8:7c:2a:00:f8:be:92:5b:a4:bc:7f:92:
         e0:86:c5:76:90:26:8a:e5:4a:da:f3:3e:80:82:98:0d:16:55:
         b2:c4:cf:4a:f6:09:ce:a8:25:6c:49:76:94:4c:e1:47:37:38:
         de:cf:38:c7:9c:1a:26:19:f2:65:3b:04:86:5b:b7:9b:ae:a5:
         b3:d1:74:41:ea:9f:b5:5d:d2:fe:7e:f4:fb:e5:71:10:01:e9:
         72:26:d0:04:da:e0:7f:1d:9d:69:61:13:d2:3f:ae:f5:e2:c8:
         d3:74:00:0d:89:93:62:1b:8d:ca:01:13:8a:60:f6:d6:a1:2d:
         1d:b2:e9:57:57:4f:3c:5e:c7:06:df:71:37:fa:d5:f2:cf:be:
         ea:ad:0d:fe:a5:c9:86:40:e6:eb:3f:49:81:46:3d:09:e3:af:
         1f:f7:06:e6:ce:77:62:e6:3a:32:00:a4:d1:97:de:33:e0:86:
         58:19:3a:2b:da:9d:c9:c2:e3:76:5f:37:12:96:9e:e7:c2:fb:
         11:60:2c:b1
-----BEGIN CERTIFICATE-----
MIIDqTCCApGgAwIBAgIBATANBgkqhkiG9w0BAQsFADBfMQswCQYDVQQGEwJKUDEO
MAwGA1UECAwFVG9reW8xDjAMBgNVBAcMBVRva3lvMSEwHwYDVQQKDBhJbnRlcm5l
dCBXaWRnaXRzIFB0eSBMdGQxDTALBgNVBAMMBG15Q0EwHhcNMTcwMzA2MTEzMDQz
WhcNMTgwMzA2MTEzMDQzWjBUMQswCQYDVQQGEwJKUDEOMAwGA1UECAwFVG9reW8x
ITAfBgNVBAoMGEludGVybmV0IFdpZGdpdHMgUHR5IEx0ZDESMBAGA1UEAwwJMTI3
LjAuMC4xMIIBIjANBgkqhkiG9w0BAQEFAAOCAQ8AMIIBCgKCAQEAqGfkaSNwyMi4
YrB2BVGQyAVU3hQ7zgzTFiKvnYA3hP+CQSkyrCEZxdw54n8StnE3kGYzGkpoCabY
SaL9FWJuBevLlGjlIBAIZKllLfX5c0qohabq5UX9x6EImYScXdT28WlmbhR4/LRs
v1IkC/QElOCuVVlM3QLxxNjGeUaMhj3P31luYpd88d+JdttrdPGG+ed18cikvQPV
Y0pgIjm+HV1e3ZNG33S+3aF5D+lNPKv0g8H7qDUdI0HCV2oLkxnGvOd8avXtSAsC
7E2ZkL0SqqcAHyL3xHSmkXNh1rXzvJr6jyhkY7cHjEYP8fn4IzZQHjQQ7JnMEU4j
daxsHIoCvQIDAQABo3sweTAJBgNVHRMEAjAAMCwGCWCGSAGG+EIBDQQfFh1PcGVu
U1NMIEdlbmVyYXRlZCBDZXJ0aWZpY2F0ZTAdBgNVHQ4EFgQUUFeZg319PqxmhKc0
QNDDTX7q3VwwHwYDVR0jBBgwFoAUlditmJi9YZvp8uAlssJeM/Oq8b8wDQYJKoZI
hvcNAQELBQADggEBADaPPE7V616oiKI8udMxST6ijaabWH5YjJdh7dWxsP3viVp4
khNg4eOAt0iL8SuGe5GK3zj6oiBL+YRhL+h8KgD4vpJbpLx/kuCGxXaQJorlStrz
PoCCmA0WVbLEz0r2Cc6oJWxJdpRM4Uc3ON7POMecGiYZ8mU7BIZbt5uupbPRdEHq
n7Vd0v5+9PvlcRAB6XIm0ATa4H8dnWlhE9I/rvXiyNN0AA2Jk2IbjcoBE4pg9tah
LR2y6VdXTzxexwbfcTf61fLPvuqtDf6lyYZA5us/SYFGPQnjrx/3BubOd2LmOjIA
pNGX3jPghlgZOivancnC43ZfNxKWnufC+xFgLLE=
-----END CERTIFICATE-----
-----BEGIN PRIVATE KEY-----
MIIEvQIBADANBgkqhkiG9w0BAQEFAASCBKcwggSjAgEAAoIBAQCoZ+RpI3DIyLhi
sHYFUZDIBVTeFDvODNMWIq+dgDeE/4JBKTKsIRnF3DnifxK2cTeQZjMaSmgJpthJ
ov0VYm4F68uUaOUgEAhkqWUt9flzSqiFpurlRf3HoQiZhJxd1PbxaWZuFHj8tGy/
UiQL9ASU4K5VWUzdAvHE2MZ5RoyGPc/fWW5il3zx34l222t08Yb553XxyKS9A9Vj
SmAiOb4dXV7dk0bfdL7doXkP6U08q/SDwfuoNR0jQcJXaguTGca853xq9e1ICwLs
TZmQvRKqpwAfIvfEdKaRc2HWtfO8mvqPKGRjtweMRg/x+fgjNlAeNBDsmcwRTiN1
rGwcigK9AgMBAAECggEAawuu+s3WUSqVWdYFDxhryVjqO0ftQ+qO+tENhDYOFHI9
n6HKXfOkaEq2WKyhfmq1AQqVjS6itw/hB92ctc0dVpItk6ahjiHi0+mBMRfbeleI
i3wwb5Bv4kcQKlVK97H5TjbLL0nAJhGh1nMmCpsPlnrDFelvnETU3WVVs50Okf0M
cTQG9hfWpTOhpgF04Qhl0iMpVW+0pmWPtdz2ba8ybNexxF8M0DWFjJTp67SQm7vX
tBHFUW+VnL1NJ0JdxAnVGWpVjx+O56w9JyiwDJuJox7HHzCb89LZfoWICsp/V5dd
7r8eS0MXicvtPdRNE+AVEuVRDO52h/N8J+2/AG78gQKBgQDUDSC5MsPvvcsd9yM4
m2W3cyG+Wdz2FDecZDUWD2lEms4JHsStMMfZs6eH6ahacZp4s4r0lWlwSBOzQq3h
Fp74lAZ+fcbImeDs2r42qN1TpuTfn/14OV+F6CZh9yzEkyJc/Z1uIJmYa3oQXDCM
x/H4PEHil/drNsEqpkFNHKPU8QKBgQDLTw3GnTUY4RR2vzr295naf6ZqluTluG4W
r0nqbKX5Ja3vR1AvRnYw/v5QeJ89WI3t0jJsJL8ewDJP5d/D8ZMF48Kg1DDKQErG
JZUYEqj0DoKPBp1ZRJER2uYvf0K4ve/MycQCIewFaV0U/ys411uKwm49/+Gwtxei
IOfKcIFajQKBgFZeJnboE2AhWIqS71iOCqbmkNbb+SCNaX0cX3blvgWAW+zhCFBW
LwAfqVu1Mqnr3XPOBQnLlU9zO/rmbLXiJcuvVtnMVtu7uR4flhvjOYppzoy6uF1w
WNTMkl2SdDx4hSWE8ss5IfYvyF7Dfc7JXWey+07UgKS9f33ki3Jh+OSxAoGBAKDy
wmsbhS9e8D5ZgSqGNUxehbYYIrkhWjWnKxLkVDh69clZYUcrtuFu3JGEDDwaYLGH
F9e493w2lx3dU1nhYozlE+0STlWutANNOUzHaO1cl0r255YFy/qgml27l2x9INu0
VvGBPUHDeabnoqXrB1NAPNnkOh0VtSXqetUuX5j5AoGAcU0uHnnIZSbhR4LcKTzr
p8fJ6nCtTboRdYkZptgz91NMzwMGXaFIq/c/Fwpb0CGgwOD5CSaOYf9UL1gmVL5J
OdICWwNdR3WFfoJXJMnDftFHOf3lLeyXBJ3MTtc2KY92NefTm6rrqlmkOFuTWdh4
6j45pON5oDsKwDyKHCSJMqo=
-----END PRIVATE KEY-----
